	.file	"everyday.cpp"
	.text
	.section .rdata,"dr"
_ZStL19piecewise_construct:
	.space 1
.lcomm _ZStL8__ioinit,1,1
.lcomm _ZL1p,4,4
.LC0:
	.ascii "p = %d\12\0"
	.text
	.globl	_Z4funcv
	.def	_Z4funcv;	.scl	2;	.type	32;	.endef
	.seh_proc	_Z4funcv
_Z4funcv:
.LFB1494:
	pushq	%rbp
	.seh_pushreg	%rbp
	movq	%rsp, %rbp
	.seh_setframe	%rbp, 0
	subq	$32, %rsp
	.seh_stackalloc	32
	.seh_endprologue
	movl	_ZL1p(%rip), %eax
	movl	%eax, %edx
	leaq	.LC0(%rip), %rcx
	call	printf
	nop
	addq	$32, %rsp
	popq	%rbp
	ret
	.seh_endproc
	.def	__main;	.scl	2;	.type	32;	.endef
	.section .rdata,"dr"
.LC1:
	.ascii "1234\0"
	.text
	.globl	main
	.def	main;	.scl	2;	.type	32;	.endef
	.seh_proc	main
main:
.LFB1495:
	pushq	%rbp
	.seh_pushreg	%rbp
	pushq	%rbx
	.seh_pushreg	%rbx
	subq	$72, %rsp
	.seh_stackalloc	72
	leaq	128(%rsp), %rbp
	.seh_setframe	%rbp, 128
	.seh_endprologue
	call	__main
	leaq	-81(%rbp), %rax
	movq	%rax, %rcx
	call	_ZNSaIcEC1Ev
	leaq	-81(%rbp), %rdx
	leaq	-96(%rbp), %rax
	movq	%rdx, %r8
	leaq	.LC1(%rip), %rdx
	movq	%rax, %rcx
.LEHB0:
	call	_ZNSsC1EPKcRKSaIcE
.LEHE0:
	leaq	-81(%rbp), %rax
	movq	%rax, %rcx
	call	_ZNSaIcED1Ev
	leaq	-96(%rbp), %rax
	movq	%rax, %rcx
	call	_ZNKSs5c_strEv
	movq	%rax, -80(%rbp)
	movq	-80(%rbp), %rax
	movq	%rax, %rdx
	movq	.refptr._ZSt4cout(%rip), %rcx
.LEHB1:
	call	_ZStlsISt11char_traitsIcEERSt13basic_ostreamIcT_ES5_PKc
	movq	.refptr._ZSt4endlIcSt11char_traitsIcEERSt13basic_ostreamIT_T0_ES6_(%rip), %rdx
	movq	%rax, %rcx
	call	_ZNSolsEPFRSoS_E
	movl	$0, -68(%rbp)
.L4:
	cmpl	$9, -68(%rbp)
	jg	.L3
	call	_Z4funcv
.LEHE1:
	addl	$1, -68(%rbp)
	jmp	.L4
.L3:
	movl	$0, %ebx
	leaq	-96(%rbp), %rax
	movq	%rax, %rcx
	call	_ZNSsD1Ev
	movl	%ebx, %eax
	jmp	.L10
.L8:
	movq	%rax, %rbx
	leaq	-81(%rbp), %rax
	movq	%rax, %rcx
	call	_ZNSaIcED1Ev
	movq	%rbx, %rax
	movq	%rax, %rcx
.LEHB2:
	call	_Unwind_Resume
.L9:
	movq	%rax, %rbx
	leaq	-96(%rbp), %rax
	movq	%rax, %rcx
	call	_ZNSsD1Ev
	movq	%rbx, %rax
	movq	%rax, %rcx
	call	_Unwind_Resume
.LEHE2:
.L10:
	addq	$72, %rsp
	popq	%rbx
	popq	%rbp
	ret
	.def	__gxx_personality_seh0;	.scl	2;	.type	32;	.endef
	.seh_handler	__gxx_personality_seh0, @unwind, @except
	.seh_handlerdata
.LLSDA1495:
	.byte	0xff
	.byte	0xff
	.byte	0x1
	.uleb128 .LLSDACSE1495-.LLSDACSB1495
.LLSDACSB1495:
	.uleb128 .LEHB0-.LFB1495
	.uleb128 .LEHE0-.LEHB0
	.uleb128 .L8-.LFB1495
	.uleb128 0
	.uleb128 .LEHB1-.LFB1495
	.uleb128 .LEHE1-.LEHB1
	.uleb128 .L9-.LFB1495
	.uleb128 0
	.uleb128 .LEHB2-.LFB1495
	.uleb128 .LEHE2-.LEHB2
	.uleb128 0
	.uleb128 0
.LLSDACSE1495:
	.text
	.seh_endproc
	.def	_Z41__static_initialization_and_destruction_0ii;	.scl	3;	.type	32;	.endef
	.seh_proc	_Z41__static_initialization_and_destruction_0ii
_Z41__static_initialization_and_destruction_0ii:
.LFB1914:
	pushq	%rbp
	.seh_pushreg	%rbp
	movq	%rsp, %rbp
	.seh_setframe	%rbp, 0
	subq	$32, %rsp
	.seh_stackalloc	32
	.seh_endprologue
	movl	%ecx, 16(%rbp)
	movl	%edx, 24(%rbp)
	cmpl	$1, 16(%rbp)
	jne	.L13
	cmpl	$65535, 24(%rbp)
	jne	.L13
	leaq	_ZStL8__ioinit(%rip), %rcx
	call	_ZNSt8ios_base4InitC1Ev
	movq	.refptr.__dso_handle(%rip), %r8
	leaq	_ZStL8__ioinit(%rip), %rdx
	movq	.refptr._ZNSt8ios_base4InitD1Ev(%rip), %rcx
	call	__cxa_atexit
	call	_Z3foov
	movl	%eax, _ZL1p(%rip)
.L13:
	nop
	addq	$32, %rsp
	popq	%rbp
	ret
	.seh_endproc
	.def	_GLOBAL__sub_I__Z4funcv;	.scl	3;	.type	32;	.endef
	.seh_proc	_GLOBAL__sub_I__Z4funcv
_GLOBAL__sub_I__Z4funcv:
.LFB1915:
	pushq	%rbp
	.seh_pushreg	%rbp
	movq	%rsp, %rbp
	.seh_setframe	%rbp, 0
	subq	$32, %rsp
	.seh_stackalloc	32
	.seh_endprologue
	movl	$65535, %edx
	movl	$1, %ecx
	call	_Z41__static_initialization_and_destruction_0ii
	nop
	addq	$32, %rsp
	popq	%rbp
	ret
	.seh_endproc
	.section	.ctors,"w"
	.align 8
	.quad	_GLOBAL__sub_I__Z4funcv
	.ident	"GCC: (GNU) 7.3.0"
	.def	printf;	.scl	2;	.type	32;	.endef
	.def	_ZNSaIcEC1Ev;	.scl	2;	.type	32;	.endef
	.def	_ZNSsC1EPKcRKSaIcE;	.scl	2;	.type	32;	.endef
	.def	_ZNSaIcED1Ev;	.scl	2;	.type	32;	.endef
	.def	_ZNKSs5c_strEv;	.scl	2;	.type	32;	.endef
	.def	_ZStlsISt11char_traitsIcEERSt13basic_ostreamIcT_ES5_PKc;	.scl	2;	.type	32;	.endef
	.def	_ZNSolsEPFRSoS_E;	.scl	2;	.type	32;	.endef
	.def	_ZNSsD1Ev;	.scl	2;	.type	32;	.endef
	.def	_Unwind_Resume;	.scl	2;	.type	32;	.endef
	.def	_ZNSt8ios_base4InitC1Ev;	.scl	2;	.type	32;	.endef
	.def	__cxa_atexit;	.scl	2;	.type	32;	.endef
	.def	_Z3foov;	.scl	2;	.type	32;	.endef
	.section	.rdata$.refptr._ZNSt8ios_base4InitD1Ev, "dr"
	.globl	.refptr._ZNSt8ios_base4InitD1Ev
	.linkonce	discard
.refptr._ZNSt8ios_base4InitD1Ev:
	.quad	_ZNSt8ios_base4InitD1Ev
	.section	.rdata$.refptr.__dso_handle, "dr"
	.globl	.refptr.__dso_handle
	.linkonce	discard
.refptr.__dso_handle:
	.quad	__dso_handle
	.section	.rdata$.refptr._ZSt4endlIcSt11char_traitsIcEERSt13basic_ostreamIT_T0_ES6_, "dr"
	.globl	.refptr._ZSt4endlIcSt11char_traitsIcEERSt13basic_ostreamIT_T0_ES6_
	.linkonce	discard
.refptr._ZSt4endlIcSt11char_traitsIcEERSt13basic_ostreamIT_T0_ES6_:
	.quad	_ZSt4endlIcSt11char_traitsIcEERSt13basic_ostreamIT_T0_ES6_
	.section	.rdata$.refptr._ZSt4cout, "dr"
	.globl	.refptr._ZSt4cout
	.linkonce	discard
.refptr._ZSt4cout:
	.quad	_ZSt4cout
